; Function Attrs: mustprogress nofree norecurse nosync nounwind willreturn memory(readwrite, inaccessiblemem: none) uwtable
define internal void @_ZZN2bv5slice14register_sliceEjjP4exprEN10remove_set4undoEv(ptr noundef nonnull readonly align 8 captures(none) dereferenceable(20) %0) unnamed_addr #16 align 2 {
  %2 = getelementptr inbounds nuw i8, ptr %0, i64 8
  %3 = load ptr, ptr %2, align 8, !tbaa !147
  %4 = getelementptr inbounds nuw i8, ptr %0, i64 16
  %5 = load i32, ptr %4, align 8, !tbaa !150
  %6 = lshr i32 %5, 5
  %7 = load ptr, ptr %3, align 8, !tbaa !88
  %8 = icmp eq ptr %7, null
  br i1 %8, label %_ZN8uint_set6removeEj.exit, label %_ZNK6vectorIjLb0EjE4sizeEv.exit.i

_ZNK6vectorIjLb0EjE4sizeEv.exit.i:                ; preds = %1
  %9 = getelementptr inbounds i8, ptr %7, i64 -4
  %10 = load i32, ptr %9, align 4, !tbaa !54
  %11 = icmp ult i32 %6, %10
  br i1 %11, label %12, label %_ZN8uint_set6removeEj.exit

12:                                               ; preds = %_ZNK6vectorIjLb0EjE4sizeEv.exit.i
  %13 = and i32 %5, 31
  %14 = shl nuw i32 1, %13
  %15 = xor i32 %14, -1
  %16 = zext nneg i32 %6 to i64
  %17 = getelementptr inbounds nuw i32, ptr %7, i64 %16
  %18 = load i32, ptr %17, align 4, !tbaa !54
  %19 = and i32 %18, %15
  store i32 %19, ptr %17, align 4, !tbaa !54
  br label %_ZN8uint_set6removeEj.exit

_ZN8uint_set6removeEj.exit:                       ; preds = %1, %_ZNK6vectorIjLb0EjE4sizeEv.exit.i, %12
  ret void
}